(dp1
S'l_n_c'
p2
S'1'
sS' q_c1'
p3
S'10625357cb2344b58ea6729f29fccc7a|1508135844000|1508135844000'
p4
sS' l_n_c'
p5
S'1'
sS'z_c0'
p6
S'"MS4xX2IyMkF3QUFBQUFYQUFBQVlRSlZUYXpnQzFwVzR1MmhlbGpCMUVSb3V6MFBzRTl3djBqQ19RPT0=|1508135852|7ff5fc3ba26c4d0a6cbf6722116723df60f4f721"'
p7
sS'l_cap_id'
p8
S''
sS' aliyungf_tc'
p9
S'AQAAAByyDQoUTw0A1DzKt1BUERWUwpGC'
p10
sS'_xsrf'
p11
S'c1454a4e78fb67a0f7d754c08504c691'
p12
sS' r_cap_id'
p13
S'"OWFlYTcxYjhlMTYzNGRhYjkxMDBiMDUzZmM3ZmU1MDM=|1508135843|3e44df1241922ce19d85246b2bb9e6501126d644"'
p14
sS' l_cap_id'
p15
S'"MDY3YjcyNjllNDdmNGY5MjhhODM2M2QwMjNhMDU3Y2U=|1508135843|1ab45cc703ffe00d69de9d7be0b50760944eade8"'
p16
sS' cap_id'
p17
S'"Y2FlZmQzYmZiZTA5NGI4Njk0MjQyOTBjYmI2MjcxOWI=|1508135843|aa0e8156d7526ba22934e4a2825a668658ba3dfb"'
p18
sS' n_c'
p19
S'1'
sS'n_c'
p20
S''
s.